; Function Attrs: nounwind uwtable
define dso_local void @get_subscription_count(ptr noundef %0) local_unnamed_addr #0 {
  %2 = tail call ptr @connectToServer(ptr noundef %0, ptr noundef nonnull @.str.5) #7
  %3 = tail call ptr (ptr, ptr, ...) @executeQueryOrDie(ptr noundef %2, ptr noundef nonnull @.str.6) #7
  %4 = tail call ptr @PQgetvalue(ptr noundef %3, i32 noundef 0, i32 noundef 0) #7
  %5 = tail call i64 @strtol(ptr noundef nonnull captures(none) %4, ptr noundef null, i32 noundef 10) #7
  %6 = trunc i64 %5 to i32
  %7 = getelementptr inbounds nuw i8, ptr %0, i64 264
  store i32 %6, ptr %7, align 8
  tail call void @PQclear(ptr noundef %3) #7
  tail call void @PQfinish(ptr noundef %2) #7
  ret void
}